(lp0
(lp1
F470.40000000000003
aF212.8
aF49.6
aF49.6
aa(lp2
F952.0
aF195.20000000000002
aF49.6
aF49.6
aa(lp3
F227.20000000000002
aF156.8
aF49.6
aF49.6
aa(lp4
F140.8
aF155.20000000000002
aF60.800000000000004
aF60.800000000000004
aa.