(lp0
(lp1
F724.8000000000001
aF201.60000000000002
aF49.6
aF49.6
aa(lp2
F816.0
aF153.60000000000002
aF41.6
aF41.6
aa(lp3
F576.0
aF212.8
aF41.6
aF41.6
aa(lp4
F936.0
aF201.60000000000002
aF49.6
aF49.6
aa(lp5
F326.40000000000003
aF294.40000000000003
aF51.2
aF51.2
aa.