(lp0
(lp1
F816.0
aF144.0
aF41.6
aF41.6
aa(lp2
F732.8000000000001
aF208.0
aF41.6
aF41.6
aa(lp3
F585.6
aF217.60000000000002
aF41.6
aF41.6
aa(lp4
F326.40000000000003
aF294.40000000000003
aF51.2
aF51.2
aa.