(lp0
(lp1
F764.8000000000001
aF172.8
aF179.20000000000002
aF177.60000000000002
aa(lp2
F249.60000000000002
aF112.0
aF179.20000000000002
aF179.20000000000002
aa(lp3
F950.4000000000001
aF195.20000000000002
aF72.0
aF72.0
aa.