(lp0
(lp1
F238.4
aF224.0
aF49.6
aF49.6
aa(lp2
F806.4000000000001
aF195.20000000000002
aF41.6
aF41.6
aa(lp3
F595.2
aF171.20000000000002
aF41.6
aF41.6
aa(lp4
F446.40000000000003
aF51.2
aF28.8
aF28.8
aa.