(lp0
(lp1
F244.8
aF224.0
aF49.6
aF49.6
aa(lp2
F590.4
aF171.20000000000002
aF41.6
aF41.6
aa(lp3
F446.40000000000003
aF48.0
aF28.8
aF28.8
aa(lp4
F718.4000000000001
aF166.4
aF28.8
aF28.8
aa(lp5
F808.0
aF190.4
aF49.6
aF49.6
aa(lp6
F1240.0
aF131.20000000000002
aF35.2
aF35.2
aa.