(lp0
(lp1
F238.4
aF224.0
aF49.6
aF49.6
aa(lp2
F803.2
aF190.4
aF49.6
aF49.6
aa(lp3
F1188.8
aF172.8
aF28.8
aF28.8
aa(lp4
F1236.8000000000002
aF131.20000000000002
aF33.6
aF35.2
aa(lp5
F595.2
aF171.20000000000002
aF41.6
aF41.6
aa.