(lp0
(lp1
F244.8
aF224.0
aF49.6
aF49.6
aa(lp2
F443.20000000000005
aF48.0
aF28.8
aF28.8
aa(lp3
F816.0
aF195.20000000000002
aF41.6
aF41.6
aa(lp4
F715.2
aF166.4
aF28.8
aF28.8
aa(lp5
F1192.0
aF172.8
aF28.8
aF28.8
aa(lp6
F590.4
aF172.8
aF35.2
aF35.2
aa(lp7
F1240.0
aF131.20000000000002
aF35.2
aF35.2
aa.