(lp0
(lp1
F852.8000000000001
aF190.4
aF41.6
aF41.6
aa(lp2
F590.4
aF180.8
aF41.6
aF41.6
aa(lp3
F78.4
aF184.0
aF49.6
aF49.6
aa(lp4
F281.6
aF227.20000000000002
aF41.6
aF41.6
aa(lp5
F411.20000000000005
aF48.0
aF28.8
aF28.8
aa(lp6
F492.8
aF24.0
aF41.6
aF41.6
aa(lp7
F1232.0
aF166.4
aF35.2
aF33.6
aa.