(lp0
(lp1
F67.2
aF190.4
aF49.6
aF49.6
aa(lp2
F852.8000000000001
aF190.4
aF41.6
aF41.6
aa(lp3
F1232.0
aF166.4
aF35.2
aF33.6
aa(lp4
F585.6
aF180.8
aF41.6
aF41.6
aa(lp5
F276.8
aF224.0
aF49.6
aF49.6
aa(lp6
F492.8
aF24.0
aF41.6
aF41.6
aa.