(lp0
(lp1
F62.400000000000006
aF190.4
aF49.6
aF49.6
aa(lp2
F852.8000000000001
aF190.4
aF41.6
aF41.6
aa(lp3
F401.6
aF51.2
aF28.8
aF28.8
aa(lp4
F276.8
aF224.0
aF49.6
aF49.6
aa(lp5
F492.8
aF24.0
aF41.6
aF41.6
aa(lp6
F585.6
aF176.0
aF41.6
aF41.6
aa(lp7
F1236.8000000000002
aF169.60000000000002
aF28.8
aF28.8
aa.