(lp0
(lp1
F64.0
aF195.20000000000002
aF41.6
aF41.6
aa(lp2
F401.6
aF51.2
aF28.8
aF28.8
aa(lp3
F852.8000000000001
aF190.4
aF41.6
aF41.6
aa(lp4
F276.8
aF224.0
aF49.6
aF49.6
aa(lp5
F492.8
aF24.0
aF41.6
aF41.6
aa.