(lp0
(lp1
F60.800000000000004
aF200.0
aF40.0
aF41.6
aa(lp2
F401.6
aF51.2
aF28.8
aF28.8
aa(lp3
F846.4000000000001
aF184.0
aF49.6
aF49.6
aa(lp4
F576.0
aF168.0
aF41.6
aF40.0
aa(lp5
F276.8
aF224.0
aF49.6
aF49.6
aa(lp6
F492.8
aF24.0
aF41.6
aF41.6
aa(lp7
F1236.8000000000002
aF169.60000000000002
aF28.8
aF28.8
aa.