(lp0
(lp1
F852.8000000000001
aF190.4
aF41.6
aF41.6
aa(lp2
F64.0
aF200.0
aF41.6
aF41.6
aa(lp3
F276.8
aF224.0
aF49.6
aF49.6
aa(lp4
F580.8000000000001
aF171.20000000000002
aF41.6
aF41.6
aa(lp5
F492.8
aF24.0
aF41.6
aF41.6
aa(lp6
F1236.8000000000002
aF166.4
aF33.6
aF33.6
aa.