(lp0
(lp1
F364.8
aF217.60000000000002
aF41.6
aF41.6
aa(lp2
F499.20000000000005
aF228.8
aF49.6
aF49.6
aa(lp3
F715.2
aF182.4
aF28.8
aF28.8
aa(lp4
F249.60000000000002
aF217.60000000000002
aF41.6
aF41.6
aa.